target datalayout = "e-m:e-p270:32:32-p271:32:32-p272:64:64-i64:64-i128:128-f80:128-n8:16:32:64-S128"
target triple = "x86_64-pc-linux-gnu"

%"class.std::basic_ostream" = type { ptr, %"class.std::basic_ios" }
%"class.std::basic_ios" = type { %"class.std::ios_base", ptr, i8, i8, ptr, ptr, ptr, ptr }
%"class.std::ios_base" = type { ptr, i64, i64, i32, i32, i32, ptr, %"struct.std::ios_base::_Words", [8 x %"struct.std::ios_base::_Words"], i32, ptr, %"class.std::locale" }
%"struct.std::ios_base::_Words" = type { ptr, i64 }
%"class.std::locale" = type { ptr }
%"struct.realclosure::mpbq_config::interval" = type { %class.mpbq, %class.mpbq, i8, i8, i8, i8, [4 x i8] }
%class.mpbq = type <{ %class.mpz, i32, [4 x i8] }>
%class.mpz = type { i32, i8, ptr }
%class.im_default_config = type { ptr }
%"struct.realclosure::mpbq_config" = type { ptr }
%class.mpq = type { %class.mpz, %class.mpz }
%"struct.realclosure::manager::imp" = type <{ ptr, ptr, i8, [7 x i8], ptr, %class.mpz_matrix_manager, %"struct.realclosure::mpbq_config::numeral_manager", %class.interval_manager, %class.interval_manager.0, [3 x %class.ptr_vector], ptr, %"struct.realclosure::mk_pi_interval", ptr, %"struct.realclosure::mk_e_interval", ptr, %class.ptr_vector.1, %class.ptr_vector, i8, i8, [2 x i8], i32, i32, i32, %class._scoped_numeral, %class._scoped_numeral, i8, [3 x i8], i32, i8, [7 x i8] }>
%class.mpz_matrix_manager = type { ptr, ptr }
%"struct.realclosure::mpbq_config::numeral_manager" = type <{ %class.mpbq_manager, i32, i8, [3 x i8] }>
%class.mpbq_manager = type { ptr, %class.mpz, %class.mpz, %class.mpbq, %class.mpz, %class.mpz, %class.mpz, %class.mpbq, %class.mpbq, %class.mpz, %class.mpz, %class.mpz }
%class.interval_manager = type { ptr, %class.im_default_config, %class.mpq, %class.mpq, %class.mpq, %class.mpq, %class.mpq, %class.mpq, %class.mpq, %class.mpq, %class.mpq, i32, [4 x i8], %"struct.im_default_config::interval", %"struct.im_default_config::interval", %"struct.im_default_config::interval", %"struct.im_default_config::interval" }
%"struct.im_default_config::interval" = type <{ %class.mpq, %class.mpq, i8, [7 x i8] }>
%class.interval_manager.0 = type { ptr, %"struct.realclosure::mpbq_config", %class.mpbq, %class.mpbq, %class.mpbq, %class.mpbq, %class.mpbq, %class.mpbq, %class.mpbq, %class.mpbq, %class.mpbq, i32, [4 x i8], %"struct.realclosure::mpbq_config::interval", %"struct.realclosure::mpbq_config::interval", %"struct.realclosure::mpbq_config::interval", %"struct.realclosure::mpbq_config::interval" }
%"struct.realclosure::mk_pi_interval" = type { %"class.realclosure::mk_interval" }
%"class.realclosure::mk_interval" = type { ptr }
%"struct.realclosure::mk_e_interval" = type { %"class.realclosure::mk_interval" }
%class.ptr_vector.1 = type { %class.vector.2 }
%class.vector.2 = type { ptr }
%class.ptr_vector = type { %class.vector }
%class.vector = type { ptr }
%class._scoped_numeral = type { ptr, %class.mpbq }
%class._scoped_interval = type { ptr, %"struct.im_default_config::interval" }

@_ZSt4cout = external global %"class.std::basic_ostream", align 8

; Function Attrs: mustprogress uwtable
define available_externally noundef nonnull align 8 dereferenceable(8) ptr @_ZNSolsEPFRSoS_E(ptr noundef nonnull align 8 dereferenceable(8) %0, ptr noundef %1) #6 align 2 {
  %3 = alloca ptr, align 8
  %4 = alloca ptr, align 8
  store ptr %0, ptr %3, align 8, !tbaa !106
  store ptr %1, ptr %4, align 8, !tbaa !127
  %5 = load ptr, ptr %3, align 8
  %6 = load ptr, ptr %4, align 8, !tbaa !127
  %7 = call noundef nonnull align 8 dereferenceable(8) ptr %6(ptr noundef nonnull align 8 dereferenceable(8) %5)
  ret ptr %7
}

; Function Attrs: mustprogress nounwind uwtable
define linkonce_odr hidden noundef nonnull align 8 dereferenceable(65) ptr @_ZNK16_scoped_intervalI16interval_managerI17im_default_configEEcvRKNS1_8intervalEEv(ptr noundef nonnull align 8 dereferenceable(80) %0) #4 comdat align 2 {
  %2 = alloca ptr, align 8
  store ptr %0, ptr %2, align 8, !tbaa !142
  %3 = load ptr, ptr %2, align 8
  %4 = getelementptr inbounds nuw %class._scoped_interval, ptr %3, i32 0, i32 1
  ret ptr %4
}

; Function Attrs: mustprogress nounwind uwtable
define linkonce_odr hidden noundef nonnull align 8 dereferenceable(600) ptr @_ZN11realclosure7manager3imp3qimEv(ptr noundef nonnull align 8 dereferenceable(1497) %0) #4 comdat align 2 {
  %2 = alloca ptr, align 8
  store ptr %0, ptr %2, align 8, !tbaa !28
  %3 = load ptr, ptr %2, align 8
  %4 = getelementptr inbounds nuw %"struct.realclosure::manager::imp", ptr %3, i32 0, i32 7
  ret ptr %4
}

; Function Attrs: mustprogress uwtable
define hidden void @_Z2ppPN11realclosure7manager3impERK16_scoped_intervalI16interval_managerI17im_default_configEE(ptr noundef %0, ptr noundef nonnull align 8 dereferenceable(80) %1) #6 {
  %3 = alloca ptr, align 8
  %4 = alloca ptr, align 8
  store ptr %0, ptr %3, align 8, !tbaa !28
  store ptr %1, ptr %4, align 8, !tbaa !142
  %5 = load ptr, ptr %3, align 8, !tbaa !28
  %6 = call noundef nonnull align 8 dereferenceable(600) ptr @_ZN11realclosure7manager3imp3qimEv(ptr noundef nonnull align 8 dereferenceable(1497) %5)
  %7 = load ptr, ptr %4, align 8, !tbaa !142
  %8 = call noundef nonnull align 8 dereferenceable(65) ptr @_ZNK16_scoped_intervalI16interval_managerI17im_default_configEEcvRKNS1_8intervalEEv(ptr noundef nonnull align 8 dereferenceable(80) %7)
  call void @_ZNK16interval_managerI17im_default_configE7displayERSoRKNS0_8intervalE(ptr noundef nonnull align 8 dereferenceable(600) %6, ptr noundef nonnull align 8 dereferenceable(8) @_ZSt4cout, ptr noundef nonnull align 8 dereferenceable(65) %8)
  %9 = call noundef nonnull align 8 dereferenceable(8) ptr @_ZNSolsEPFRSoS_E(ptr noundef nonnull align 8 dereferenceable(8) @_ZSt4cout, ptr noundef @_ZSt4endlIcSt11char_traitsIcEERSt13basic_ostreamIT_T0_ES6_)
  ret void
}